; Function Attrs: mustprogress nofree norecurse nosync nounwind willreturn memory(argmem: read) uwtable
define noundef zeroext range(i8 0, 16) i8 @_ZN15MarchingSquares8GetIndexEPKdd(ptr noundef readonly captures(none) %0, double noundef %1) local_unnamed_addr #2 align 2 {
  %3 = load double, ptr %0, align 8
  %4 = fcmp olt double %3, %1
  %.0 = zext i1 %4 to i8
  %5 = getelementptr inbounds nuw i8, ptr %0, i64 8
  %6 = load double, ptr %5, align 8
  %7 = fcmp olt double %6, %1
  %8 = or disjoint i8 %.0, 2
  %.1 = select i1 %7, i8 %8, i8 %.0
  %9 = getelementptr inbounds nuw i8, ptr %0, i64 24
  %10 = load double, ptr %9, align 8
  %11 = fcmp olt double %10, %1
  %12 = or disjoint i8 %.1, 4
  %.2 = select i1 %11, i8 %12, i8 %.1
  %13 = getelementptr inbounds nuw i8, ptr %0, i64 16
  %14 = load double, ptr %13, align 8
  %15 = fcmp olt double %14, %1
  %16 = or disjoint i8 %.2, 8
  %.3 = select i1 %15, i8 %16, i8 %.2
  ret i8 %.3
}